target datalayout = "e-m:e-p270:32:32-p271:32:32-p272:64:64-i64:64-i128:128-f80:128-n8:16:32:64-S128"
target triple = "x86_64-pc-linux-gnu"

%struct.OSQPCodegenDefines = type { i64, i64, i64, i64, i64, i64 }

@.str.2 = private unnamed_addr constant [2 x i8] c"w\00", align 1
@.str.3 = private unnamed_addr constant [4 x i8] c"/*\0A\00", align 1
@.str.4 = private unnamed_addr constant [45 x i8] c" * This file was autogenerated by OSQP on %s\00", align 1
@.str.5 = private unnamed_addr constant [5 x i8] c" * \0A\00", align 1
@.str.8 = private unnamed_addr constant [6 x i8] c" */\0A\0A\00", align 1
@.str.25 = private unnamed_addr constant [19 x i8] c"%sosqp_configure.h\00", align 1
@__func__.codegen_defines = private unnamed_addr constant [16 x i8] c"codegen_defines\00", align 1
@.str.26 = private unnamed_addr constant [65 x i8] c" * This file contains the configuration options needed by OSQP.\0A\00", align 1
@.str.27 = private unnamed_addr constant [26 x i8] c"#ifndef OSQP_CONFIGURE_H\0A\00", align 1
@.str.28 = private unnamed_addr constant [27 x i8] c"#define OSQP_CONFIGURE_H\0A\0A\00", align 1
@.str.29 = private unnamed_addr constant [30 x i8] c"#define OSQP_ALGEBRA_BUILTIN\0A\00", align 1
@.str.30 = private unnamed_addr constant [34 x i8] c"#define OSQP_EMBEDDED_MODE %lld\0A\0A\00", align 1
@.str.31 = private unnamed_addr constant [34 x i8] c"#define OSQP_ENABLE_DERIVATIVES\0A\0A\00", align 1
@.str.32 = private unnamed_addr constant [31 x i8] c"#define OSQP_ENABLE_PRINTING\0A\0A\00", align 1
@.str.33 = private unnamed_addr constant [32 x i8] c"#define OSQP_ENABLE_PROFILING\0A\0A\00", align 1
@.str.34 = private unnamed_addr constant [32 x i8] c"#define OSQP_ENABLE_INTERRUPT\0A\0A\00", align 1
@.str.35 = private unnamed_addr constant [25 x i8] c"#define OSQP_USE_FLOAT\0A\0A\00", align 1
@.str.36 = private unnamed_addr constant [38 x i8] c"#endif /* ifndef OSQP_CONFIGURE_H */\0A\00", align 1

; Function Attrs: nounwind uwtable
define i64 @codegen_defines(ptr noundef %0, ptr noundef %1) #0 {
  %3 = alloca i64, align 8
  %4 = alloca ptr, align 8
  %5 = alloca ptr, align 8
  %6 = alloca [1024 x i8], align 16
  %7 = alloca ptr, align 8
  %8 = alloca i64, align 8
  store ptr %0, ptr %4, align 8
  store ptr %1, ptr %5, align 8
  %9 = getelementptr inbounds [1024 x i8], ptr %6, i64 0, i64 0
  %10 = load ptr, ptr %4, align 8
  %11 = call i32 (ptr, ptr, ...) @sprintf(ptr noundef %9, ptr noundef @.str.25, ptr noundef %10) #4
  %12 = getelementptr inbounds [1024 x i8], ptr %6, i64 0, i64 0
  %13 = call noalias ptr @fopen(ptr noundef %12, ptr noundef @.str.2)
  store ptr %13, ptr %7, align 8
  %14 = load ptr, ptr %7, align 8
  %15 = icmp eq ptr %14, null
  br i1 %15, label %16, label %18

16:                                               ; preds = %2
  %17 = call i64 @_osqp_error(i32 noundef 8, ptr noundef @__func__.codegen_defines)
  store i64 %17, ptr %3, align 8
  br label %86

18:                                               ; preds = %2
  %19 = call i64 @time(ptr noundef %8) #4
  %20 = load ptr, ptr %7, align 8
  %21 = call i32 (ptr, ptr, ...) @fprintf(ptr noundef %20, ptr noundef @.str.3) #4
  %22 = load ptr, ptr %7, align 8
  %23 = call ptr @ctime(ptr noundef %8) #4
  %24 = call i32 (ptr, ptr, ...) @fprintf(ptr noundef %22, ptr noundef @.str.4, ptr noundef %23) #4
  %25 = load ptr, ptr %7, align 8
  %26 = call i32 (ptr, ptr, ...) @fprintf(ptr noundef %25, ptr noundef @.str.5) #4
  %27 = load ptr, ptr %7, align 8
  %28 = call i32 (ptr, ptr, ...) @fprintf(ptr noundef %27, ptr noundef @.str.26) #4
  %29 = load ptr, ptr %7, align 8
  %30 = call i32 (ptr, ptr, ...) @fprintf(ptr noundef %29, ptr noundef @.str.8) #4
  %31 = load ptr, ptr %7, align 8
  %32 = call i32 (ptr, ptr, ...) @fprintf(ptr noundef %31, ptr noundef @.str.27) #4
  %33 = load ptr, ptr %7, align 8
  %34 = call i32 (ptr, ptr, ...) @fprintf(ptr noundef %33, ptr noundef @.str.28) #4
  %35 = load ptr, ptr %7, align 8
  %36 = call i32 (ptr, ptr, ...) @fprintf(ptr noundef %35, ptr noundef @.str.29) #4
  %37 = load ptr, ptr %7, align 8
  %38 = load ptr, ptr %5, align 8
  %39 = getelementptr inbounds %struct.OSQPCodegenDefines, ptr %38, i32 0, i32 0
  %40 = load i64, ptr %39, align 8
  %41 = call i32 (ptr, ptr, ...) @fprintf(ptr noundef %37, ptr noundef @.str.30, i64 noundef %40) #4
  %42 = load ptr, ptr %5, align 8
  %43 = getelementptr inbounds %struct.OSQPCodegenDefines, ptr %42, i32 0, i32 5
  %44 = load i64, ptr %43, align 8
  %45 = icmp eq i64 %44, 1
  br i1 %45, label %46, label %49

46:                                               ; preds = %18
  %47 = load ptr, ptr %7, align 8
  %48 = call i32 (ptr, ptr, ...) @fprintf(ptr noundef %47, ptr noundef @.str.31) #4
  br label %49

49:                                               ; preds = %46, %18
  %50 = load ptr, ptr %5, align 8
  %51 = getelementptr inbounds %struct.OSQPCodegenDefines, ptr %50, i32 0, i32 2
  %52 = load i64, ptr %51, align 8
  %53 = icmp eq i64 %52, 1
  br i1 %53, label %54, label %57

54:                                               ; preds = %49
  %55 = load ptr, ptr %7, align 8
  %56 = call i32 (ptr, ptr, ...) @fprintf(ptr noundef %55, ptr noundef @.str.32) #4
  br label %57

57:                                               ; preds = %54, %49
  %58 = load ptr, ptr %5, align 8
  %59 = getelementptr inbounds %struct.OSQPCodegenDefines, ptr %58, i32 0, i32 3
  %60 = load i64, ptr %59, align 8
  %61 = icmp eq i64 %60, 1
  br i1 %61, label %62, label %65

62:                                               ; preds = %57
  %63 = load ptr, ptr %7, align 8
  %64 = call i32 (ptr, ptr, ...) @fprintf(ptr noundef %63, ptr noundef @.str.33) #4
  br label %65

65:                                               ; preds = %62, %57
  %66 = load ptr, ptr %5, align 8
  %67 = getelementptr inbounds %struct.OSQPCodegenDefines, ptr %66, i32 0, i32 4
  %68 = load i64, ptr %67, align 8
  %69 = icmp eq i64 %68, 1
  br i1 %69, label %70, label %73

70:                                               ; preds = %65
  %71 = load ptr, ptr %7, align 8
  %72 = call i32 (ptr, ptr, ...) @fprintf(ptr noundef %71, ptr noundef @.str.34) #4
  br label %73

73:                                               ; preds = %70, %65
  %74 = load ptr, ptr %5, align 8
  %75 = getelementptr inbounds %struct.OSQPCodegenDefines, ptr %74, i32 0, i32 1
  %76 = load i64, ptr %75, align 8
  %77 = icmp eq i64 %76, 1
  br i1 %77, label %78, label %81

78:                                               ; preds = %73
  %79 = load ptr, ptr %7, align 8
  %80 = call i32 (ptr, ptr, ...) @fprintf(ptr noundef %79, ptr noundef @.str.35) #4
  br label %81

81:                                               ; preds = %78, %73
  %82 = load ptr, ptr %7, align 8
  %83 = call i32 (ptr, ptr, ...) @fprintf(ptr noundef %82, ptr noundef @.str.36) #4
  %84 = load ptr, ptr %7, align 8
  %85 = call i32 @fclose(ptr noundef %84)
  store i64 0, ptr %3, align 8
  br label %86

86:                                               ; preds = %81, %16
  %87 = load i64, ptr %3, align 8
  ret i64 %87
}