; Function Attrs: nounwind uwtable
define i64 @codegen_defines(ptr noundef %0, ptr nocapture noundef readonly %1) local_unnamed_addr #0 {
  %3 = alloca [1024 x i8], align 16
  %4 = alloca i64, align 8
  %5 = call i32 (ptr, ptr, ...) @sprintf(ptr noundef nonnull dereferenceable(1) %3, ptr noundef nonnull dereferenceable(1) @.str.25, ptr noundef %0) #8
  %6 = call noalias ptr @fopen(ptr noundef nonnull %3, ptr noundef nonnull @.str.2)
  %7 = icmp eq ptr %6, null
  br i1 %7, label %8, label %10

8:                                                ; preds = %2
  %9 = tail call i64 @_osqp_error(i32 noundef 8, ptr noundef nonnull @__func__.codegen_defines) #8
  br label %55

10:                                               ; preds = %2
  %11 = call i64 @time(ptr noundef nonnull %4) #8
  %12 = call i64 @fwrite(ptr nonnull @.str.3, i64 3, i64 1, ptr nonnull %6)
  %13 = call ptr @ctime(ptr noundef nonnull %4) #8
  %14 = call i32 (ptr, ptr, ...) @fprintf(ptr noundef nonnull %6, ptr noundef nonnull @.str.4, ptr noundef %13) #8
  %15 = call i64 @fwrite(ptr nonnull @.str.5, i64 4, i64 1, ptr nonnull %6)
  %16 = call i64 @fwrite(ptr nonnull @.str.26, i64 64, i64 1, ptr nonnull %6)
  %17 = call i64 @fwrite(ptr nonnull @.str.8, i64 5, i64 1, ptr nonnull %6)
  %18 = call i64 @fwrite(ptr nonnull @.str.27, i64 25, i64 1, ptr nonnull %6)
  %19 = call i64 @fwrite(ptr nonnull @.str.28, i64 26, i64 1, ptr nonnull %6)
  %20 = call i64 @fwrite(ptr nonnull @.str.29, i64 29, i64 1, ptr nonnull %6)
  %21 = load i64, ptr %1, align 8
  %22 = call i32 (ptr, ptr, ...) @fprintf(ptr noundef nonnull %6, ptr noundef nonnull @.str.30, i64 noundef %21) #8
  %23 = getelementptr inbounds i8, ptr %1, i64 40
  %24 = load i64, ptr %23, align 8
  %25 = icmp eq i64 %24, 1
  br i1 %25, label %26, label %28

26:                                               ; preds = %10
  %27 = call i64 @fwrite(ptr nonnull @.str.31, i64 33, i64 1, ptr nonnull %6)
  br label %28

28:                                               ; preds = %26, %10
  %29 = getelementptr inbounds i8, ptr %1, i64 16
  %30 = load i64, ptr %29, align 8
  %31 = icmp eq i64 %30, 1
  br i1 %31, label %32, label %34

32:                                               ; preds = %28
  %33 = call i64 @fwrite(ptr nonnull @.str.32, i64 30, i64 1, ptr nonnull %6)
  br label %34

34:                                               ; preds = %32, %28
  %35 = getelementptr inbounds i8, ptr %1, i64 24
  %36 = load i64, ptr %35, align 8
  %37 = icmp eq i64 %36, 1
  br i1 %37, label %38, label %40

38:                                               ; preds = %34
  %39 = call i64 @fwrite(ptr nonnull @.str.33, i64 31, i64 1, ptr nonnull %6)
  br label %40

40:                                               ; preds = %38, %34
  %41 = getelementptr inbounds i8, ptr %1, i64 32
  %42 = load i64, ptr %41, align 8
  %43 = icmp eq i64 %42, 1
  br i1 %43, label %44, label %46

44:                                               ; preds = %40
  %45 = call i64 @fwrite(ptr nonnull @.str.34, i64 31, i64 1, ptr nonnull %6)
  br label %46

46:                                               ; preds = %44, %40
  %47 = getelementptr inbounds i8, ptr %1, i64 8
  %48 = load i64, ptr %47, align 8
  %49 = icmp eq i64 %48, 1
  br i1 %49, label %50, label %52

50:                                               ; preds = %46
  %51 = call i64 @fwrite(ptr nonnull @.str.35, i64 24, i64 1, ptr nonnull %6)
  br label %52

52:                                               ; preds = %50, %46
  %53 = call i64 @fwrite(ptr nonnull @.str.36, i64 37, i64 1, ptr nonnull %6)
  %54 = call i32 @fclose(ptr noundef nonnull %6)
  br label %55

55:                                               ; preds = %52, %8
  %.0 = phi i64 [ %9, %8 ], [ 0, %52 ]
  ret i64 %.0
}